target datalayout = "e-m:e-p270:32:32-p271:32:32-p272:64:64-i64:64-i128:128-f80:128-n8:16:32:64-S128"
target triple = "x86_64-pc-linux-gnu"

%"class.casadi::SharedObject" = type { ptr }
%"class.casadi::Slice" = type { i64, i64, i64 }
%"class.casadi::GetNonzeros" = type { %"class.casadi::MXNode" }
%"class.casadi::MXNode" = type { %"class.casadi::SharedObjectInternal", i64, %"class.std::vector.3", %"class.casadi::Sparsity" }
%"class.casadi::SharedObjectInternal" = type { ptr, i64, ptr }
%"class.std::vector.3" = type { %"struct.std::_Vector_base.4" }
%"struct.std::_Vector_base.4" = type { %"struct.std::_Vector_base<casadi::MX, std::allocator<casadi::MX>>::_Vector_impl" }
%"struct.std::_Vector_base<casadi::MX, std::allocator<casadi::MX>>::_Vector_impl" = type { %"struct.std::_Vector_base<casadi::MX, std::allocator<casadi::MX>>::_Vector_impl_data" }
%"struct.std::_Vector_base<casadi::MX, std::allocator<casadi::MX>>::_Vector_impl_data" = type { ptr, ptr, ptr }
%"class.casadi::Sparsity" = type { %"class.casadi::SharedObject" }
%"class.casadi::GetNonzerosSlice" = type { %"class.casadi::GetNonzeros", %"class.casadi::Slice" }

; Function Attrs: mustprogress nounwind uwtable
define noundef i32 @_ZNK6casadi16GetNonzerosSlice10sp_forwardEPPKyPPyPxS4_(ptr noundef nonnull align 8 dereferenceable(88) %0, ptr noundef %1, ptr noundef %2, ptr noundef %3, ptr noundef %4) unnamed_addr #5 align 2 {
  %6 = alloca ptr, align 8
  %7 = alloca ptr, align 8
  %8 = alloca ptr, align 8
  %9 = alloca ptr, align 8
  %10 = alloca ptr, align 8
  %11 = alloca ptr, align 8
  %12 = alloca ptr, align 8
  %13 = alloca i64, align 8
  store ptr %0, ptr %6, align 8
  store ptr %1, ptr %7, align 8
  store ptr %2, ptr %8, align 8
  store ptr %3, ptr %9, align 8
  store ptr %4, ptr %10, align 8
  %14 = load ptr, ptr %6, align 8
  %15 = load ptr, ptr %7, align 8
  %16 = getelementptr inbounds ptr, ptr %15, i64 0
  %17 = load ptr, ptr %16, align 8
  store ptr %17, ptr %11, align 8
  %18 = load ptr, ptr %8, align 8
  %19 = getelementptr inbounds ptr, ptr %18, i64 0
  %20 = load ptr, ptr %19, align 8
  store ptr %20, ptr %12, align 8
  %21 = getelementptr inbounds %"class.casadi::GetNonzerosSlice", ptr %14, i32 0, i32 1
  %22 = getelementptr inbounds %"class.casadi::Slice", ptr %21, i32 0, i32 0
  %23 = load i64, ptr %22, align 8
  store i64 %23, ptr %13, align 8
  br label %24

24:                                               ; preds = %37, %5
  %25 = load i64, ptr %13, align 8
  %26 = getelementptr inbounds %"class.casadi::GetNonzerosSlice", ptr %14, i32 0, i32 1
  %27 = getelementptr inbounds %"class.casadi::Slice", ptr %26, i32 0, i32 1
  %28 = load i64, ptr %27, align 8
  %29 = icmp ne i64 %25, %28
  br i1 %29, label %30, label %43

30:                                               ; preds = %24
  %31 = load ptr, ptr %11, align 8
  %32 = load i64, ptr %13, align 8
  %33 = getelementptr inbounds i64, ptr %31, i64 %32
  %34 = load i64, ptr %33, align 8
  %35 = load ptr, ptr %12, align 8
  %36 = getelementptr inbounds i64, ptr %35, i32 1
  store ptr %36, ptr %12, align 8
  store i64 %34, ptr %35, align 8
  br label %37

37:                                               ; preds = %30
  %38 = getelementptr inbounds %"class.casadi::GetNonzerosSlice", ptr %14, i32 0, i32 1
  %39 = getelementptr inbounds %"class.casadi::Slice", ptr %38, i32 0, i32 2
  %40 = load i64, ptr %39, align 8
  %41 = load i64, ptr %13, align 8
  %42 = add nsw i64 %41, %40
  store i64 %42, ptr %13, align 8
  br label %24, !llvm.loop !14

43:                                               ; preds = %24
  ret i32 0
}