; Function Attrs: mustprogress nofree norecurse nosync nounwind memory(readwrite, inaccessiblemem: none) uwtable
define noundef i32 @_ZNK6casadi16GetNonzerosSlice10sp_forwardEPPKyPPyPxS4_(ptr nocapture noundef nonnull readonly align 8 dereferenceable(88) %0, ptr nocapture noundef readonly %1, ptr nocapture noundef readonly %2, ptr nocapture readnone %3, ptr nocapture readnone %4) unnamed_addr #6 align 2 {
  %6 = load ptr, ptr %1, align 8
  %7 = getelementptr inbounds i8, ptr %0, i64 64
  %8 = load i64, ptr %7, align 8
  %9 = getelementptr inbounds i8, ptr %0, i64 72
  %10 = load i64, ptr %9, align 8
  %.not8 = icmp eq i64 %8, %10
  br i1 %.not8, label %._crit_edge, label %.lr.ph

.lr.ph:                                           ; preds = %5
  %11 = load ptr, ptr %2, align 8
  %12 = getelementptr inbounds i8, ptr %0, i64 80
  br label %13

13:                                               ; preds = %.lr.ph, %13
  %.010 = phi i64 [ %8, %.lr.ph ], [ %18, %13 ]
  %.079 = phi ptr [ %11, %.lr.ph ], [ %16, %13 ]
  %14 = getelementptr inbounds i64, ptr %6, i64 %.010
  %15 = load i64, ptr %14, align 8
  %16 = getelementptr inbounds i8, ptr %.079, i64 8
  store i64 %15, ptr %.079, align 8
  %17 = load i64, ptr %12, align 8
  %18 = add nsw i64 %17, %.010
  %19 = load i64, ptr %9, align 8
  %.not = icmp eq i64 %18, %19
  br i1 %.not, label %._crit_edge, label %13, !llvm.loop !17

._crit_edge:                                      ; preds = %13, %5
  ret i32 0
}